target datalayout = "e-m:e-p270:32:32-p271:32:32-p272:64:64-i64:64-i128:128-f80:128-n8:16:32:64-S128"
target triple = "x86_64-pc-linux-gnu"

%struct._packet_info = type { ptr, ptr, i32, i32, %struct.nstime_t, %struct.nstime_t, %struct.nstime_t, i8, ptr, ptr, ptr, ptr, %struct._address, %struct._address, %struct._address, %struct._address, %struct._address, %struct._address, i32, ptr, i8, [3 x i8], %struct.anon, i32, i32, i32, i32, ptr, i8, ptr, ptr, i16, i16, i32, i32, i16, i32, i32, ptr, ptr, ptr, i8, i8, i16, i16, i16, i32, i16, i16, ptr, ptr, ptr, ptr, ptr, i32, i32 }
%struct.nstime_t = type { i64, i32 }
%struct._address = type { i32, i32, ptr, ptr }
%struct.anon = type { i8, [3 x i8] }

@hf_2008_1_dnp_0_1_1_padding = internal global i32 0, align 4
@hf_2008_1_dnp_0_1_1_version = internal global i32 0, align 4
@.str.701 = private unnamed_addr constant [7 x i8] c"DNPv0 \00", align 1
@.str.702 = private unnamed_addr constant [6 x i8] c"Query\00", align 1
@.str.703 = private unnamed_addr constant [15 x i8] c"Query Response\00", align 1

; Function Attrs: null_pointer_is_valid sspstrong uwtable
define internal i32 @dissect_dnp_0(ptr noundef %0, ptr noundef %1, ptr noundef %2, ptr noundef %3) #0 {
  %5 = alloca ptr, align 8
  %6 = alloca ptr, align 8
  %7 = alloca ptr, align 8
  %8 = alloca ptr, align 8
  %9 = alloca i32, align 4
  %10 = alloca i8, align 1
  %11 = alloca i8, align 1
  %12 = alloca i8, align 1
  store ptr %0, ptr %5, align 8
  store ptr %1, ptr %6, align 8
  store ptr %2, ptr %7, align 8
  store ptr %3, ptr %8, align 8
  call void @llvm.lifetime.start.p0(i64 4, ptr %9) #19
  store i32 0, ptr %9, align 4
  call void @llvm.lifetime.start.p0(i64 1, ptr %10) #19
  store i8 0, ptr %10, align 1
  store i32 0, ptr %9, align 4
  %13 = load ptr, ptr %6, align 8
  %14 = getelementptr inbounds nuw %struct._packet_info, ptr %13, i32 0, i32 1
  %15 = load ptr, ptr %14, align 8
  call void @col_clear(ptr noundef %15, i32 noundef 25)
  call void @llvm.lifetime.start.p0(i64 1, ptr %11) #19
  %16 = load ptr, ptr %5, align 8
  %17 = load i32, ptr %9, align 4
  %18 = call zeroext i8 @tvb_get_uint8(ptr noundef %16, i32 noundef %17)
  store i8 %18, ptr %11, align 1
  %19 = load i8, ptr %11, align 1
  %20 = zext i8 %19 to i32
  %21 = and i32 %20, 128
  %22 = icmp ne i32 %21, 0
  %23 = zext i1 %22 to i32
  %24 = trunc i32 %23 to i8
  store i8 %24, ptr %10, align 1
  %25 = load i32, ptr %9, align 4
  %26 = add i32 %25, 1
  store i32 %26, ptr %9, align 4
  %27 = load ptr, ptr %6, align 8
  %28 = getelementptr inbounds nuw %struct._packet_info, ptr %27, i32 0, i32 1
  %29 = load ptr, ptr %28, align 8
  call void @col_set_str(ptr noundef %29, i32 noundef 35, ptr noundef @.str.701)
  %30 = load i8, ptr %10, align 1
  %31 = icmp ne i8 %30, 0
  br i1 %31, label %32, label %33

32:                                               ; preds = %4
  br label %33

33:                                               ; preds = %32, %4
  %34 = load ptr, ptr %5, align 8
  %35 = call i32 @tvb_reported_length(ptr noundef %34)
  %36 = load i32, ptr %9, align 4
  %37 = icmp eq i32 %35, %36
  br i1 %37, label %38, label %42

38:                                               ; preds = %33
  %39 = load ptr, ptr %6, align 8
  %40 = getelementptr inbounds nuw %struct._packet_info, ptr %39, i32 0, i32 1
  %41 = load ptr, ptr %40, align 8
  call void @col_set_str(ptr noundef %41, i32 noundef 25, ptr noundef @.str.702)
  br label %95

42:                                               ; preds = %33
  call void @llvm.lifetime.start.p0(i64 1, ptr %12) #19
  %43 = load ptr, ptr %5, align 8
  %44 = load i32, ptr %9, align 4
  %45 = call zeroext i8 @tvb_get_uint8(ptr noundef %43, i32 noundef %44)
  store i8 %45, ptr %12, align 1
  %46 = load i8, ptr %12, align 1
  %47 = zext i8 %46 to i32
  %48 = icmp eq i32 %47, 0
  br i1 %48, label %49, label %58

49:                                               ; preds = %42
  %50 = load ptr, ptr %6, align 8
  %51 = getelementptr inbounds nuw %struct._packet_info, ptr %50, i32 0, i32 1
  %52 = load ptr, ptr %51, align 8
  call void @col_set_str(ptr noundef %52, i32 noundef 25, ptr noundef @.str.702)
  %53 = load ptr, ptr %7, align 8
  %54 = load i32, ptr @hf_2008_1_dnp_0_1_1_padding, align 4
  %55 = load ptr, ptr %5, align 8
  %56 = load i32, ptr %9, align 4
  %57 = call ptr @proto_tree_add_item(ptr noundef %53, i32 noundef %54, ptr noundef %55, i32 noundef %56, i32 noundef -1, i32 noundef 0)
  br label %94

58:                                               ; preds = %42
  %59 = load ptr, ptr %6, align 8
  %60 = getelementptr inbounds nuw %struct._packet_info, ptr %59, i32 0, i32 1
  %61 = load ptr, ptr %60, align 8
  call void @col_set_str(ptr noundef %61, i32 noundef 25, ptr noundef @.str.703)
  br label %62

62:                                               ; preds = %78, %58
  %63 = load i8, ptr %12, align 1
  %64 = icmp ne i8 %63, 0
  br i1 %64, label %65, label %82

65:                                               ; preds = %62
  %66 = load ptr, ptr %7, align 8
  %67 = load i32, ptr @hf_2008_1_dnp_0_1_1_version, align 4
  %68 = load ptr, ptr %5, align 8
  %69 = load i32, ptr %9, align 4
  %70 = call ptr @proto_tree_add_item(ptr noundef %66, i32 noundef %67, ptr noundef %68, i32 noundef %69, i32 noundef 1, i32 noundef 0)
  %71 = load i32, ptr %9, align 4
  %72 = add i32 %71, 1
  store i32 %72, ptr %9, align 4
  %73 = load i32, ptr %9, align 4
  %74 = load ptr, ptr %5, align 8
  %75 = call i32 @tvb_reported_length(ptr noundef %74)
  %76 = icmp eq i32 %73, %75
  br i1 %76, label %77, label %78

77:                                               ; preds = %65
  br label %82

78:                                               ; preds = %65
  %79 = load ptr, ptr %5, align 8
  %80 = load i32, ptr %9, align 4
  %81 = call zeroext i8 @tvb_get_uint8(ptr noundef %79, i32 noundef %80)
  store i8 %81, ptr %12, align 1
  br label %62, !llvm.loop !44

82:                                               ; preds = %77, %62
  %83 = load i32, ptr %9, align 4
  %84 = load ptr, ptr %5, align 8
  %85 = call i32 @tvb_reported_length(ptr noundef %84)
  %86 = icmp ult i32 %83, %85
  br i1 %86, label %87, label %93

87:                                               ; preds = %82
  %88 = load ptr, ptr %7, align 8
  %89 = load i32, ptr @hf_2008_1_dnp_0_1_1_padding, align 4
  %90 = load ptr, ptr %5, align 8
  %91 = load i32, ptr %9, align 4
  %92 = call ptr @proto_tree_add_item(ptr noundef %88, i32 noundef %89, ptr noundef %90, i32 noundef %91, i32 noundef -1, i32 noundef 0)
  br label %93

93:                                               ; preds = %87, %82
  br label %94

94:                                               ; preds = %93, %49
  call void @llvm.lifetime.end.p0(i64 1, ptr %12) #19
  br label %95

95:                                               ; preds = %94, %38
  call void @llvm.lifetime.end.p0(i64 1, ptr %11) #19
  %96 = load ptr, ptr %6, align 8
  %97 = getelementptr inbounds nuw %struct._packet_info, ptr %96, i32 0, i32 1
  %98 = load ptr, ptr %97, align 8
  call void @col_set_fence(ptr noundef %98, i32 noundef 35)
  %99 = load ptr, ptr %6, align 8
  %100 = getelementptr inbounds nuw %struct._packet_info, ptr %99, i32 0, i32 1
  %101 = load ptr, ptr %100, align 8
  call void @col_set_fence(ptr noundef %101, i32 noundef 25)
  %102 = load ptr, ptr %5, align 8
  %103 = call i32 @tvb_reported_length(ptr noundef %102)
  call void @llvm.lifetime.end.p0(i64 1, ptr %10) #19
  call void @llvm.lifetime.end.p0(i64 4, ptr %9) #19
  ret i32 %103
}