; Function Attrs: null_pointer_is_valid sspstrong uwtable
define internal i32 @dissect_dnp_0(ptr noundef %0, ptr noundef readonly captures(none) %1, ptr noundef %2, ptr readnone captures(none) %3) #0 {
  %5 = getelementptr inbounds nuw i8, ptr %1, i64 8
  %6 = load ptr, ptr %5, align 8
  tail call void @col_clear(ptr noundef %6, i32 noundef 25)
  %7 = tail call zeroext i8 @tvb_get_uint8(ptr noundef %0, i32 noundef 0)
  %8 = load ptr, ptr %5, align 8
  tail call void @col_set_str(ptr noundef %8, i32 noundef 35, ptr noundef nonnull @.str.701)
  %9 = tail call i32 @tvb_reported_length(ptr noundef %0)
  %10 = icmp eq i32 %9, 1
  br i1 %10, label %11, label %13

11:                                               ; preds = %4
  %12 = load ptr, ptr %5, align 8
  tail call void @col_set_str(ptr noundef %12, i32 noundef 25, ptr noundef nonnull @.str.702)
  br label %35

13:                                               ; preds = %4
  %14 = tail call zeroext i8 @tvb_get_uint8(ptr noundef %0, i32 noundef 1)
  %15 = icmp eq i8 %14, 0
  %16 = load ptr, ptr %5, align 8
  br i1 %15, label %17, label %20

17:                                               ; preds = %13
  tail call void @col_set_str(ptr noundef %16, i32 noundef 25, ptr noundef nonnull @.str.702)
  %18 = load i32, ptr @hf_2008_1_dnp_0_1_1_padding, align 4
  %19 = tail call ptr @proto_tree_add_item(ptr noundef %2, i32 noundef %18, ptr noundef %0, i32 noundef 1, i32 noundef -1, i32 noundef 0)
  br label %35

20:                                               ; preds = %13
  tail call void @col_set_str(ptr noundef %16, i32 noundef 25, ptr noundef nonnull @.str.703)
  br label %21

21:                                               ; preds = %20, %27
  %.03437 = phi i32 [ 1, %20 ], [ %24, %27 ]
  %22 = load i32, ptr @hf_2008_1_dnp_0_1_1_version, align 4
  %23 = tail call ptr @proto_tree_add_item(ptr noundef %2, i32 noundef %22, ptr noundef %0, i32 noundef %.03437, i32 noundef 1, i32 noundef 0)
  %24 = add i32 %.03437, 1
  %25 = tail call i32 @tvb_reported_length(ptr noundef %0)
  %26 = icmp eq i32 %24, %25
  br i1 %26, label %29, label %27

27:                                               ; preds = %21
  %28 = tail call zeroext i8 @tvb_get_uint8(ptr noundef %0, i32 noundef %24)
  %.not = icmp eq i8 %28, 0
  br i1 %.not, label %29, label %21, !llvm.loop !50

29:                                               ; preds = %21, %27
  %30 = tail call i32 @tvb_reported_length(ptr noundef %0)
  %31 = icmp ult i32 %24, %30
  br i1 %31, label %32, label %35

32:                                               ; preds = %29
  %33 = load i32, ptr @hf_2008_1_dnp_0_1_1_padding, align 4
  %34 = tail call ptr @proto_tree_add_item(ptr noundef %2, i32 noundef %33, ptr noundef %0, i32 noundef %24, i32 noundef -1, i32 noundef 0)
  br label %35

35:                                               ; preds = %17, %32, %29, %11
  %36 = load ptr, ptr %5, align 8
  tail call void @col_set_fence(ptr noundef %36, i32 noundef 35)
  %37 = load ptr, ptr %5, align 8
  tail call void @col_set_fence(ptr noundef %37, i32 noundef 25)
  %38 = tail call i32 @tvb_reported_length(ptr noundef %0)
  ret i32 %38
}